; Function Attrs: nounwind uwtable
define dso_local void @ResolveRecoveryConflictWithSnapshot(i32 noundef %0, i1 noundef zeroext %1, i64 %2, i32 %3) local_unnamed_addr #0 {
  %.sroa.1.0.extract.shift = lshr i64 %2, 32
  %.sroa.1.0.extract.trunc = trunc nuw i64 %.sroa.1.0.extract.shift to i32
  %.not = icmp eq i32 %0, 0
  br i1 %.not, label %11, label %5

5:                                                ; preds = %4
  %6 = tail call ptr @GetConflictingVirtualXIDs(i32 noundef %0, i32 noundef %.sroa.1.0.extract.trunc) #7
  tail call fastcc void @ResolveRecoveryConflictWithVirtualXIDs(ptr noundef %6, i32 noundef 10, i32 noundef 134217772, i1 noundef zeroext true)
  %7 = load i32, ptr @wal_level, align 4
  %8 = icmp sgt i32 %7, 1
  %brmerge.not = and i1 %1, %8
  br i1 %brmerge.not, label %9, label %11

9:                                                ; preds = %5
  %10 = tail call zeroext i1 @InvalidateObsoleteReplicationSlots(i32 noundef 2, i64 noundef 0, i32 noundef %.sroa.1.0.extract.trunc, i32 noundef %0) #7
  br label %11

11:                                               ; preds = %9, %5, %4
  ret void
}